target datalayout = "e-m:e-p270:32:32-p271:32:32-p272:64:64-i64:64-i128:128-f80:128-n8:16:32:64-S128"
target triple = "x86_64-pc-linux-gnu"

%struct.ident_t = type { i32, i32, i32, i32, ptr }
%class.FreeEnergyDispatch = type { %struct.gmx_grppairener_t, %"class.gmx::ThreadedForceBuffer", %"class.gmx::ThreadedForceBuffer" }
%struct.gmx_grppairener_t = type { i32, %"struct.gmx::EnumerationArray" }
%"struct.gmx::EnumerationArray" = type { [5 x %"class.std::vector"] }
%"class.std::vector" = type { %"struct.std::_Vector_base" }
%"struct.std::_Vector_base" = type { %"struct.std::_Vector_base<float, std::allocator<float>>::_Vector_impl" }
%"struct.std::_Vector_base<float, std::allocator<float>>::_Vector_impl" = type { %"struct.std::_Vector_base<float, std::allocator<float>>::_Vector_impl_data" }
%"struct.std::_Vector_base<float, std::allocator<float>>::_Vector_impl_data" = type { ptr, ptr, ptr }
%"class.gmx::ThreadedForceBuffer" = type { i8, %"class.std::vector.0", %"class.std::vector.5", %"class.std::vector.10" }
%"class.std::vector.0" = type { %"struct.std::_Vector_base.1" }
%"struct.std::_Vector_base.1" = type { %"struct.std::_Vector_base<std::unique_ptr<gmx::ThreadForceBuffer<RVec>>, std::allocator<std::unique_ptr<gmx::ThreadForceBuffer<RVec>>>>::_Vector_impl" }
%"struct.std::_Vector_base<std::unique_ptr<gmx::ThreadForceBuffer<RVec>>, std::allocator<std::unique_ptr<gmx::ThreadForceBuffer<RVec>>>>::_Vector_impl" = type { %"struct.std::_Vector_base<std::unique_ptr<gmx::ThreadForceBuffer<RVec>>, std::allocator<std::unique_ptr<gmx::ThreadForceBuffer<RVec>>>>::_Vector_impl_data" }
%"struct.std::_Vector_base<std::unique_ptr<gmx::ThreadForceBuffer<RVec>>, std::allocator<std::unique_ptr<gmx::ThreadForceBuffer<RVec>>>>::_Vector_impl_data" = type { ptr, ptr, ptr }
%"class.std::vector.5" = type { %"struct.std::_Vector_base.6" }
%"struct.std::_Vector_base.6" = type { %"struct.std::_Vector_base<int, std::allocator<int>>::_Vector_impl" }
%"struct.std::_Vector_base<int, std::allocator<int>>::_Vector_impl" = type { %"struct.std::_Vector_base<int, std::allocator<int>>::_Vector_impl_data" }
%"struct.std::_Vector_base<int, std::allocator<int>>::_Vector_impl_data" = type { ptr, ptr, ptr }
%"class.std::vector.10" = type { %"struct.std::_Vector_base.11" }
%"struct.std::_Vector_base.11" = type { %"struct.std::_Vector_base<std::array<unsigned long, 2>, std::allocator<std::array<unsigned long, 2>>>::_Vector_impl" }
%"struct.std::_Vector_base<std::array<unsigned long, 2>, std::allocator<std::array<unsigned long, 2>>>::_Vector_impl" = type { %"struct.std::_Vector_base<std::array<unsigned long, 2>, std::allocator<std::array<unsigned long, 2>>>::_Vector_impl_data" }
%"struct.std::_Vector_base<std::array<unsigned long, 2>, std::allocator<std::array<unsigned long, 2>>>::_Vector_impl_data" = type { ptr, ptr, ptr }
%"class.gmx::ArrayRef" = type { %"struct.gmx::ArrayRefIter", %"struct.gmx::ArrayRefIter" }
%"struct.gmx::ArrayRefIter" = type { ptr }

@1 = private unnamed_addr constant %struct.ident_t { i32 0, i32 514, i32 0, i32 22, ptr @0 }, align 8
@_ZTISt9exception = external constant ptr

; Function Attrs: mustprogress nounwind uwtable
define linkonce_odr noundef i64 @_ZNK3gmx12ArrayRefIterIKSt10unique_ptrI8t_nblistSt14default_deleteIS2_EEEmiES7_(ptr noundef nonnull align 8 dereferenceable(8) %0, ptr %1) #2 comdat align 2 {
  %3 = alloca %"struct.gmx::ArrayRefIter", align 8
  %4 = alloca ptr, align 8
  %5 = getelementptr inbounds %"struct.gmx::ArrayRefIter", ptr %3, i32 0, i32 0
  store ptr %1, ptr %5, align 8
  store ptr %0, ptr %4, align 8
  %6 = load ptr, ptr %4, align 8
  %7 = getelementptr inbounds %"struct.gmx::ArrayRefIter", ptr %6, i32 0, i32 0
  %8 = load ptr, ptr %7, align 8
  %9 = getelementptr inbounds %"struct.gmx::ArrayRefIter", ptr %3, i32 0, i32 0
  %10 = load ptr, ptr %9, align 8
  %11 = ptrtoint ptr %8 to i64
  %12 = ptrtoint ptr %10 to i64
  %13 = sub i64 %11, %12
  %14 = sdiv exact i64 %13, 8
  ret i64 %14
}

; Function Attrs: mustprogress nounwind uwtable
define linkonce_odr noundef i64 @_ZNK3gmx8ArrayRefIKSt10unique_ptrI8t_nblistSt14default_deleteIS2_EEE4sizeEv(ptr noundef nonnull align 8 dereferenceable(16) %0) #2 comdat align 2 {
  %2 = alloca ptr, align 8
  %3 = alloca %"struct.gmx::ArrayRefIter", align 8
  store ptr %0, ptr %2, align 8
  %4 = load ptr, ptr %2, align 8
  %5 = getelementptr inbounds %"class.gmx::ArrayRef", ptr %4, i32 0, i32 1
  %6 = getelementptr inbounds %"class.gmx::ArrayRef", ptr %4, i32 0, i32 0
  call void @llvm.memcpy.p0.p0.i64(ptr align 8 %3, ptr align 8 %6, i64 8, i1 false)
  %7 = getelementptr inbounds %"struct.gmx::ArrayRefIter", ptr %3, i32 0, i32 0
  %8 = load ptr, ptr %7, align 8
  %9 = call noundef i64 @_ZNK3gmx12ArrayRefIterIKSt10unique_ptrI8t_nblistSt14default_deleteIS2_EEEmiES7_(ptr noundef nonnull align 8 dereferenceable(8) %5, ptr %8) #9
  ret i64 %9
}

; Function Attrs: mustprogress uwtable
define linkonce_odr noundef i64 @_ZNK3gmx8ArrayRefIKSt10unique_ptrI8t_nblistSt14default_deleteIS2_EEE5ssizeEv(ptr noundef nonnull align 8 dereferenceable(16) %0) #0 comdat align 2 {
  %2 = alloca ptr, align 8
  store ptr %0, ptr %2, align 8
  %3 = load ptr, ptr %2, align 8
  %4 = call noundef i64 @_ZNK3gmx8ArrayRefIKSt10unique_ptrI8t_nblistSt14default_deleteIS2_EEE4sizeEv(ptr noundef nonnull align 8 dereferenceable(16) %3)
  ret i64 %4
}

; Function Attrs: norecurse nounwind uwtable
define internal void @_ZN18FreeEnergyDispatch25dispatchFreeEnergyKernelsERK12PairlistSetsRKN3gmx19ArrayRefWithPaddingIKNS3_11BasicVectorIfEEEEPNS3_20ForceWithShiftForcesEbiRK19interaction_const_tNS3_8ArrayRefIS7_EENSG_IKfEESJ_SJ_SJ_NSG_IKiEESL_SJ_P14gmx_enerdata_tRKNS3_12StepWorkloadEP6t_nrnbP13gmx_wallcycle.omp_outlined(ptr noalias noundef %0, ptr noalias noundef %1, ptr noundef nonnull align 8 dereferenceable(16) %2, ptr noundef %3) #8 personality ptr @__gxx_personality_v0 {
  %5 = alloca ptr, align 8
  %6 = alloca ptr, align 8
  %7 = alloca ptr, align 8
  %8 = alloca ptr, align 8
  %9 = alloca i64, align 8
  %10 = alloca i64, align 8
  %11 = alloca i64, align 8
  %12 = alloca i64, align 8
  %13 = alloca i64, align 8
  %14 = alloca i64, align 8
  %15 = alloca i64, align 8
  %16 = alloca i32, align 4
  %17 = alloca i64, align 8
  %18 = alloca ptr, align 8
  %19 = alloca i32, align 4
  %20 = alloca ptr, align 8
  store ptr %0, ptr %5, align 8
  store ptr %1, ptr %6, align 8
  store ptr %2, ptr %7, align 8
  store ptr %3, ptr %8, align 8
  %21 = load ptr, ptr %7, align 8
  %22 = load ptr, ptr %8, align 8
  %23 = invoke noundef i64 @_ZNK3gmx8ArrayRefIKSt10unique_ptrI8t_nblistSt14default_deleteIS2_EEE5ssizeEv(ptr noundef nonnull align 8 dereferenceable(16) %21)
          to label %24 unwind label %82

24:                                               ; preds = %4
  store i64 %23, ptr %10, align 8
  %25 = load i64, ptr %10, align 8
  %26 = sub nsw i64 %25, 0
  %27 = sdiv i64 %26, 1
  %28 = sub nsw i64 %27, 1
  store i64 %28, ptr %11, align 8
  store i64 0, ptr %12, align 8
  %29 = load i64, ptr %10, align 8
  %30 = icmp slt i64 0, %29
  br i1 %30, label %31, label %81

31:                                               ; preds = %24
  store i64 0, ptr %13, align 8
  %32 = load i64, ptr %11, align 8
  store i64 %32, ptr %14, align 8
  store i64 1, ptr %15, align 8
  store i32 0, ptr %16, align 4
  %33 = load ptr, ptr %5, align 8
  %34 = load i32, ptr %33, align 4
  call void @__kmpc_for_static_init_8(ptr @1, i32 %34, i32 34, ptr %16, ptr %13, ptr %14, ptr %15, i64 1, i64 1)
  %35 = load i64, ptr %14, align 8
  %36 = load i64, ptr %11, align 8
  %37 = icmp sgt i64 %35, %36
  br i1 %37, label %38, label %40

38:                                               ; preds = %31
  %39 = load i64, ptr %11, align 8
  br label %42

40:                                               ; preds = %31
  %41 = load i64, ptr %14, align 8
  br label %42

42:                                               ; preds = %40, %38
  %43 = phi i64 [ %39, %38 ], [ %41, %40 ]
  store i64 %43, ptr %14, align 8
  %44 = load i64, ptr %13, align 8
  store i64 %44, ptr %9, align 8
  br label %45

45:                                               ; preds = %74, %42
  %46 = load i64, ptr %9, align 8
  %47 = load i64, ptr %14, align 8
  %48 = icmp sle i64 %46, %47
  br i1 %48, label %49, label %77

49:                                               ; preds = %45
  %50 = load i64, ptr %9, align 8
  %51 = mul nsw i64 %50, 1
  %52 = add nsw i64 0, %51
  store i64 %52, ptr %17, align 8
  %53 = getelementptr inbounds %class.FreeEnergyDispatch, ptr %22, i32 0, i32 1
  %54 = load i64, ptr %17, align 8
  %55 = trunc i64 %54 to i32
  %56 = invoke noundef nonnull align 8 dereferenceable(284) ptr @_ZN3gmx19ThreadedForceBufferINS_11BasicVectorIfEEE17threadForceBufferEi(ptr noundef nonnull align 8 dereferenceable(80) %53, i32 noundef %55)
          to label %57 unwind label %59

57:                                               ; preds = %49
  invoke void @_ZN3gmx17ThreadForceBufferINS_11BasicVectorIfEEE22clearForcesAndEnergiesEv(ptr noundef nonnull align 8 dereferenceable(284) %56)
          to label %58 unwind label %59

58:                                               ; preds = %57
  br label %72

59:                                               ; preds = %57, %49
  %60 = landingpad { ptr, i32 }
          catch ptr @_ZTISt9exception
          catch ptr null
  %61 = extractvalue { ptr, i32 } %60, 0
  store ptr %61, ptr %18, align 8
  %62 = extractvalue { ptr, i32 } %60, 1
  store i32 %62, ptr %19, align 4
  br label %63

63:                                               ; preds = %59
  %64 = load i32, ptr %19, align 4
  %65 = call i32 @llvm.eh.typeid.for(ptr @_ZTISt9exception) #9
  %66 = icmp eq i32 %64, %65
  br i1 %66, label %67, label %85

67:                                               ; preds = %63
  %68 = load ptr, ptr %18, align 8
  %69 = call ptr @__cxa_begin_catch(ptr %68) #9
  store ptr %69, ptr %20, align 8
  %70 = load ptr, ptr %20, align 8
  invoke void @_ZN3gmx28processExceptionAsFatalErrorERKSt9exception(ptr noundef nonnull align 8 dereferenceable(8) %70) #13
          to label %71 unwind label %82

71:                                               ; preds = %67
  unreachable

72:                                               ; preds = %58
  br label %73

73:                                               ; preds = %72
  br label %74

74:                                               ; preds = %73
  %75 = load i64, ptr %9, align 8
  %76 = add nsw i64 %75, 1
  store i64 %76, ptr %9, align 8
  br label %45

77:                                               ; preds = %45
  br label %78

78:                                               ; preds = %77
  %79 = load ptr, ptr %5, align 8
  %80 = load i32, ptr %79, align 4
  call void @__kmpc_for_static_fini(ptr @1, i32 %80)
  br label %81

81:                                               ; preds = %78, %24
  ret void

82:                                               ; preds = %67, %4
  %83 = landingpad { ptr, i32 }
          catch ptr null
  %84 = extractvalue { ptr, i32 } %83, 0
  call void @__clang_call_terminate(ptr %84) #14
  unreachable

85:                                               ; preds = %63
  %86 = load ptr, ptr %18, align 8
  call void @__clang_call_terminate(ptr %86) #14
  unreachable
}