; Function Attrs: norecurse nounwind uwtable
define internal void @_ZN18FreeEnergyDispatch25dispatchFreeEnergyKernelsERK12PairlistSetsRKN3gmx19ArrayRefWithPaddingIKNS3_11BasicVectorIfEEEEPNS3_20ForceWithShiftForcesEbiRK19interaction_const_tNS3_8ArrayRefIS7_EENSG_IKfEESJ_SJ_SJ_NSG_IKiEESL_SJ_P14gmx_enerdata_tRKNS3_12StepWorkloadEP6t_nrnbP13gmx_wallcycle.omp_outlined(ptr noalias nocapture noundef readonly %0, ptr noalias nocapture readnone %1, ptr nocapture noundef nonnull readonly align 8 dereferenceable(16) %2, ptr noundef %3) #8 personality ptr @__gxx_personality_v0 {
  %5 = alloca i64, align 8
  %6 = alloca i64, align 8
  %7 = alloca i64, align 8
  %8 = alloca i32, align 4
  %9 = getelementptr inbounds i8, ptr %2, i64 8
  %.sroa.0.0.copyload.i.i = load ptr, ptr %2, align 8
  %10 = load ptr, ptr %9, align 8
  %11 = ptrtoint ptr %10 to i64
  %12 = ptrtoint ptr %.sroa.0.0.copyload.i.i to i64
  %13 = sub i64 %11, %12
  %14 = ashr exact i64 %13, 3
  %15 = icmp sgt i64 %14, 0
  br i1 %15, label %16, label %39

16:                                               ; preds = %4
  %17 = add nsw i64 %14, -1
  store i64 0, ptr %5, align 8
  store i64 %17, ptr %6, align 8
  store i64 1, ptr %7, align 8
  store i32 0, ptr %8, align 4
  %18 = load i32, ptr %0, align 4
  call void @__kmpc_for_static_init_8(ptr nonnull @1, i32 %18, i32 34, ptr nonnull %8, ptr nonnull %5, ptr nonnull %6, ptr nonnull %7, i64 1, i64 1)
  %19 = load i64, ptr %6, align 8
  %20 = call i64 @llvm.smin.i64(i64 %19, i64 %17)
  store i64 %20, ptr %6, align 8
  %21 = load i64, ptr %5, align 8
  %.not16 = icmp sgt i64 %21, %20
  br i1 %.not16, label %._crit_edge, label %.lr.ph

.lr.ph:                                           ; preds = %16
  %22 = getelementptr inbounds i8, ptr %3, i64 128
  br label %23

23:                                               ; preds = %.lr.ph, %36
  %.017 = phi i64 [ %21, %.lr.ph ], [ %37, %36 ]
  %24 = trunc i64 %.017 to i32
  %25 = invoke noundef nonnull align 8 dereferenceable(284) ptr @_ZN3gmx19ThreadedForceBufferINS_11BasicVectorIfEEE17threadForceBufferEi(ptr noundef nonnull align 8 dereferenceable(80) %22, i32 noundef %24)
          to label %26 unwind label %27

26:                                               ; preds = %23
  invoke void @_ZN3gmx17ThreadForceBufferINS_11BasicVectorIfEEE22clearForcesAndEnergiesEv(ptr noundef nonnull align 8 dereferenceable(284) %25)
          to label %36 unwind label %27

27:                                               ; preds = %26, %23
  %28 = landingpad { ptr, i32 }
          catch ptr @_ZTISt9exception
          catch ptr null
  %29 = extractvalue { ptr, i32 } %28, 0
  %30 = extractvalue { ptr, i32 } %28, 1
  %31 = call i32 @llvm.eh.typeid.for(ptr nonnull @_ZTISt9exception) #9
  %32 = icmp eq i32 %30, %31
  br i1 %32, label %33, label %43

33:                                               ; preds = %27
  %34 = call ptr @__cxa_begin_catch(ptr %29) #9
  invoke void @_ZN3gmx28processExceptionAsFatalErrorERKSt9exception(ptr noundef nonnull align 8 dereferenceable(8) %34) #17
          to label %35 unwind label %40

35:                                               ; preds = %33
  unreachable

36:                                               ; preds = %26
  %37 = add nsw i64 %.017, 1
  %38 = load i64, ptr %6, align 8
  %.not.not = icmp slt i64 %.017, %38
  br i1 %.not.not, label %23, label %._crit_edge

._crit_edge:                                      ; preds = %36, %16
  call void @__kmpc_for_static_fini(ptr nonnull @1, i32 %18)
  br label %39

39:                                               ; preds = %._crit_edge, %4
  ret void

40:                                               ; preds = %33
  %41 = landingpad { ptr, i32 }
          catch ptr null
  %42 = extractvalue { ptr, i32 } %41, 0
  call void @__clang_call_terminate(ptr %42) #19
  unreachable

43:                                               ; preds = %27
  call void @__clang_call_terminate(ptr %29) #19
  unreachable
}